target datalayout = "e-m:e-p270:32:32-p271:32:32-p272:64:64-i64:64-i128:128-f80:128-n8:16:32:64-S128"
target triple = "x86_64-pc-linux-gnu"

%struct.mbedtls_ccm_context = type { [16 x i8], [16 x i8], i64, i64, i64, i64, i32, i32, %struct.mbedtls_cipher_context_t, i32 }
%struct.mbedtls_cipher_context_t = type { ptr, i32, i32, ptr, ptr, [16 x i8], i64, [16 x i8], i64, ptr, ptr }

; Function Attrs: alwaysinline nounwind uwtable
define internal void @mbedtls_put_unaligned_uint64(ptr noundef %0, i64 noundef %1) #6 {
  %3 = alloca ptr, align 8
  %4 = alloca i64, align 8
  store ptr %0, ptr %3, align 8, !tbaa !38
  store i64 %1, ptr %4, align 8, !tbaa !14
  %5 = load ptr, ptr %3, align 8, !tbaa !38
  call void @llvm.memcpy.p0.p0.i64(ptr align 1 %5, ptr align 8 %4, i64 8, i1 false)
  ret void
}

; Function Attrs: alwaysinline nounwind uwtable
define internal i64 @mbedtls_get_unaligned_uint64(ptr noundef %0) #6 {
  %2 = alloca ptr, align 8
  %3 = alloca i64, align 8
  store ptr %0, ptr %2, align 8, !tbaa !38
  call void @llvm.lifetime.start.p0(i64 8, ptr %3) #8
  %4 = load ptr, ptr %2, align 8, !tbaa !38
  call void @llvm.memcpy.p0.p0.i64(ptr align 8 %3, ptr align 1 %4, i64 8, i1 false)
  %5 = load i64, ptr %3, align 8, !tbaa !14
  call void @llvm.lifetime.end.p0(i64 8, ptr %3) #8
  ret i64 %5
}

; Function Attrs: alwaysinline nounwind uwtable
define internal void @mbedtls_xor(ptr noundef %0, ptr noundef %1, ptr noundef %2, i64 noundef %3) #6 {
  %5 = alloca ptr, align 8
  %6 = alloca ptr, align 8
  %7 = alloca ptr, align 8
  %8 = alloca i64, align 8
  %9 = alloca i64, align 8
  %10 = alloca i64, align 8
  store ptr %0, ptr %5, align 8, !tbaa !10
  store ptr %1, ptr %6, align 8, !tbaa !10
  store ptr %2, ptr %7, align 8, !tbaa !10
  store i64 %3, ptr %8, align 8, !tbaa !14
  call void @llvm.lifetime.start.p0(i64 8, ptr %9) #8
  store i64 0, ptr %9, align 8, !tbaa !14
  br label %11

11:                                               ; preds = %30, %4
  %12 = load i64, ptr %9, align 8, !tbaa !14
  %13 = add i64 %12, 8
  %14 = load i64, ptr %8, align 8, !tbaa !14
  %15 = icmp ule i64 %13, %14
  br i1 %15, label %16, label %33

16:                                               ; preds = %11
  call void @llvm.lifetime.start.p0(i64 8, ptr %10) #8
  %17 = load ptr, ptr %6, align 8, !tbaa !10
  %18 = load i64, ptr %9, align 8, !tbaa !14
  %19 = getelementptr inbounds nuw i8, ptr %17, i64 %18
  %20 = call i64 @mbedtls_get_unaligned_uint64(ptr noundef %19)
  %21 = load ptr, ptr %7, align 8, !tbaa !10
  %22 = load i64, ptr %9, align 8, !tbaa !14
  %23 = getelementptr inbounds nuw i8, ptr %21, i64 %22
  %24 = call i64 @mbedtls_get_unaligned_uint64(ptr noundef %23)
  %25 = xor i64 %20, %24
  store i64 %25, ptr %10, align 8, !tbaa !14
  %26 = load ptr, ptr %5, align 8, !tbaa !10
  %27 = load i64, ptr %9, align 8, !tbaa !14
  %28 = getelementptr inbounds nuw i8, ptr %26, i64 %27
  %29 = load i64, ptr %10, align 8, !tbaa !14
  call void @mbedtls_put_unaligned_uint64(ptr noundef %28, i64 noundef %29)
  call void @llvm.lifetime.end.p0(i64 8, ptr %10) #8
  br label %30

30:                                               ; preds = %16
  %31 = load i64, ptr %9, align 8, !tbaa !14
  %32 = add i64 %31, 8
  store i64 %32, ptr %9, align 8, !tbaa !14
  br label %11, !llvm.loop !30

33:                                               ; preds = %11
  br label %34

34:                                               ; preds = %54, %33
  %35 = load i64, ptr %9, align 8, !tbaa !14
  %36 = load i64, ptr %8, align 8, !tbaa !14
  %37 = icmp ult i64 %35, %36
  br i1 %37, label %38, label %57

38:                                               ; preds = %34
  %39 = load ptr, ptr %6, align 8, !tbaa !10
  %40 = load i64, ptr %9, align 8, !tbaa !14
  %41 = getelementptr inbounds nuw i8, ptr %39, i64 %40
  %42 = load i8, ptr %41, align 1, !tbaa !21
  %43 = zext i8 %42 to i32
  %44 = load ptr, ptr %7, align 8, !tbaa !10
  %45 = load i64, ptr %9, align 8, !tbaa !14
  %46 = getelementptr inbounds nuw i8, ptr %44, i64 %45
  %47 = load i8, ptr %46, align 1, !tbaa !21
  %48 = zext i8 %47 to i32
  %49 = xor i32 %43, %48
  %50 = trunc i32 %49 to i8
  %51 = load ptr, ptr %5, align 8, !tbaa !10
  %52 = load i64, ptr %9, align 8, !tbaa !14
  %53 = getelementptr inbounds nuw i8, ptr %51, i64 %52
  store i8 %50, ptr %53, align 1, !tbaa !21
  br label %54

54:                                               ; preds = %38
  %55 = load i64, ptr %9, align 8, !tbaa !14
  %56 = add i64 %55, 1
  store i64 %56, ptr %9, align 8, !tbaa !14
  br label %34, !llvm.loop !31

57:                                               ; preds = %34
  call void @llvm.lifetime.end.p0(i64 8, ptr %9) #8
  ret void
}

; Function Attrs: nounwind uwtable
define hidden i32 @mbedtls_ccm_update_ad(ptr noundef %0, ptr noundef %1, i64 noundef %2) #0 {
  %4 = alloca i32, align 4
  %5 = alloca ptr, align 8
  %6 = alloca ptr, align 8
  %7 = alloca i64, align 8
  %8 = alloca i32, align 4
  %9 = alloca i64, align 8
  %10 = alloca i64, align 8
  %11 = alloca i64, align 8
  %12 = alloca i32, align 4
  store ptr %0, ptr %5, align 8, !tbaa !3
  store ptr %1, ptr %6, align 8, !tbaa !10
  store i64 %2, ptr %7, align 8, !tbaa !14
  call void @llvm.lifetime.start.p0(i64 4, ptr %8) #8
  store i32 -110, ptr %8, align 4, !tbaa !8
  call void @llvm.lifetime.start.p0(i64 8, ptr %9) #8
  call void @llvm.lifetime.start.p0(i64 8, ptr %10) #8
  call void @llvm.lifetime.start.p0(i64 8, ptr %11) #8
  %13 = load ptr, ptr %5, align 8, !tbaa !3
  %14 = getelementptr inbounds nuw %struct.mbedtls_ccm_context, ptr %13, i32 0, i32 9
  %15 = load i32, ptr %14, align 8, !tbaa !22
  %16 = and i32 %15, 16
  %17 = icmp ne i32 %16, 0
  br i1 %17, label %18, label %19

18:                                               ; preds = %3
  store i32 -13, ptr %4, align 4
  store i32 1, ptr %12, align 4
  br label %176

19:                                               ; preds = %3
  %20 = load i64, ptr %7, align 8, !tbaa !14
  %21 = icmp ugt i64 %20, 0
  br i1 %21, label %22, label %175

22:                                               ; preds = %19
  %23 = load ptr, ptr %5, align 8, !tbaa !3
  %24 = getelementptr inbounds nuw %struct.mbedtls_ccm_context, ptr %23, i32 0, i32 9
  %25 = load i32, ptr %24, align 8, !tbaa !22
  %26 = and i32 %25, 8
  %27 = icmp ne i32 %26, 0
  br i1 %27, label %28, label %29

28:                                               ; preds = %22
  store i32 -13, ptr %4, align 4
  store i32 1, ptr %12, align 4
  br label %176

29:                                               ; preds = %22
  %30 = load ptr, ptr %5, align 8, !tbaa !3
  %31 = getelementptr inbounds nuw %struct.mbedtls_ccm_context, ptr %30, i32 0, i32 9
  %32 = load i32, ptr %31, align 8, !tbaa !22
  %33 = and i32 %32, 4
  %34 = icmp ne i32 %33, 0
  br i1 %34, label %74, label %35

35:                                               ; preds = %29
  %36 = load i64, ptr %7, align 8, !tbaa !14
  %37 = load ptr, ptr %5, align 8, !tbaa !3
  %38 = getelementptr inbounds nuw %struct.mbedtls_ccm_context, ptr %37, i32 0, i32 3
  %39 = load i64, ptr %38, align 8, !tbaa !25
  %40 = icmp ugt i64 %36, %39
  br i1 %40, label %41, label %42

41:                                               ; preds = %35
  store i32 -13, ptr %4, align 4
  store i32 1, ptr %12, align 4
  br label %176

42:                                               ; preds = %35
  %43 = load ptr, ptr %5, align 8, !tbaa !3
  %44 = getelementptr inbounds nuw %struct.mbedtls_ccm_context, ptr %43, i32 0, i32 3
  %45 = load i64, ptr %44, align 8, !tbaa !25
  %46 = lshr i64 %45, 8
  %47 = and i64 %46, 255
  %48 = trunc i64 %47 to i8
  %49 = zext i8 %48 to i32
  %50 = load ptr, ptr %5, align 8, !tbaa !3
  %51 = getelementptr inbounds nuw %struct.mbedtls_ccm_context, ptr %50, i32 0, i32 0
  %52 = getelementptr inbounds [16 x i8], ptr %51, i64 0, i64 0
  %53 = load i8, ptr %52, align 8, !tbaa !21
  %54 = zext i8 %53 to i32
  %55 = xor i32 %54, %49
  %56 = trunc i32 %55 to i8
  store i8 %56, ptr %52, align 8, !tbaa !21
  %57 = load ptr, ptr %5, align 8, !tbaa !3
  %58 = getelementptr inbounds nuw %struct.mbedtls_ccm_context, ptr %57, i32 0, i32 3
  %59 = load i64, ptr %58, align 8, !tbaa !25
  %60 = and i64 %59, 255
  %61 = trunc i64 %60 to i8
  %62 = zext i8 %61 to i32
  %63 = load ptr, ptr %5, align 8, !tbaa !3
  %64 = getelementptr inbounds nuw %struct.mbedtls_ccm_context, ptr %63, i32 0, i32 0
  %65 = getelementptr inbounds [16 x i8], ptr %64, i64 0, i64 1
  %66 = load i8, ptr %65, align 1, !tbaa !21
  %67 = zext i8 %66 to i32
  %68 = xor i32 %67, %62
  %69 = trunc i32 %68 to i8
  store i8 %69, ptr %65, align 1, !tbaa !21
  %70 = load ptr, ptr %5, align 8, !tbaa !3
  %71 = getelementptr inbounds nuw %struct.mbedtls_ccm_context, ptr %70, i32 0, i32 9
  %72 = load i32, ptr %71, align 8, !tbaa !22
  %73 = or i32 %72, 4
  store i32 %73, ptr %71, align 8, !tbaa !22
  br label %86

74:                                               ; preds = %29
  %75 = load ptr, ptr %5, align 8, !tbaa !3
  %76 = getelementptr inbounds nuw %struct.mbedtls_ccm_context, ptr %75, i32 0, i32 5
  %77 = load i64, ptr %76, align 8, !tbaa !28
  %78 = load i64, ptr %7, align 8, !tbaa !14
  %79 = add i64 %77, %78
  %80 = load ptr, ptr %5, align 8, !tbaa !3
  %81 = getelementptr inbounds nuw %struct.mbedtls_ccm_context, ptr %80, i32 0, i32 3
  %82 = load i64, ptr %81, align 8, !tbaa !25
  %83 = icmp ugt i64 %79, %82
  br i1 %83, label %84, label %85

84:                                               ; preds = %74
  store i32 -13, ptr %4, align 4
  store i32 1, ptr %12, align 4
  br label %176

85:                                               ; preds = %74
  br label %86

86:                                               ; preds = %85, %42
  br label %87

87:                                               ; preds = %158, %86
  %88 = load i64, ptr %7, align 8, !tbaa !14
  %89 = icmp ugt i64 %88, 0
  br i1 %89, label %90, label %159

90:                                               ; preds = %87
  %91 = load ptr, ptr %5, align 8, !tbaa !3
  %92 = getelementptr inbounds nuw %struct.mbedtls_ccm_context, ptr %91, i32 0, i32 5
  %93 = load i64, ptr %92, align 8, !tbaa !28
  %94 = add i64 %93, 2
  %95 = urem i64 %94, 16
  store i64 %95, ptr %10, align 8, !tbaa !14
  %96 = load i64, ptr %10, align 8, !tbaa !14
  %97 = sub i64 16, %96
  store i64 %97, ptr %9, align 8, !tbaa !14
  %98 = load i64, ptr %9, align 8, !tbaa !14
  %99 = load i64, ptr %7, align 8, !tbaa !14
  %100 = icmp ugt i64 %98, %99
  br i1 %100, label %101, label %103

101:                                              ; preds = %90
  %102 = load i64, ptr %7, align 8, !tbaa !14
  store i64 %102, ptr %9, align 8, !tbaa !14
  br label %103

103:                                              ; preds = %101, %90
  %104 = load ptr, ptr %5, align 8, !tbaa !3
  %105 = getelementptr inbounds nuw %struct.mbedtls_ccm_context, ptr %104, i32 0, i32 0
  %106 = getelementptr inbounds [16 x i8], ptr %105, i64 0, i64 0
  %107 = load i64, ptr %10, align 8, !tbaa !14
  %108 = getelementptr inbounds nuw i8, ptr %106, i64 %107
  %109 = load ptr, ptr %5, align 8, !tbaa !3
  %110 = getelementptr inbounds nuw %struct.mbedtls_ccm_context, ptr %109, i32 0, i32 0
  %111 = getelementptr inbounds [16 x i8], ptr %110, i64 0, i64 0
  %112 = load i64, ptr %10, align 8, !tbaa !14
  %113 = getelementptr inbounds nuw i8, ptr %111, i64 %112
  %114 = load ptr, ptr %6, align 8, !tbaa !10
  %115 = load i64, ptr %9, align 8, !tbaa !14
  call void @mbedtls_xor(ptr noundef %108, ptr noundef %113, ptr noundef %114, i64 noundef %115)
  %116 = load i64, ptr %9, align 8, !tbaa !14
  %117 = load ptr, ptr %5, align 8, !tbaa !3
  %118 = getelementptr inbounds nuw %struct.mbedtls_ccm_context, ptr %117, i32 0, i32 5
  %119 = load i64, ptr %118, align 8, !tbaa !28
  %120 = add i64 %119, %116
  store i64 %120, ptr %118, align 8, !tbaa !28
  %121 = load i64, ptr %9, align 8, !tbaa !14
  %122 = load i64, ptr %7, align 8, !tbaa !14
  %123 = sub i64 %122, %121
  store i64 %123, ptr %7, align 8, !tbaa !14
  %124 = load i64, ptr %9, align 8, !tbaa !14
  %125 = load ptr, ptr %6, align 8, !tbaa !10
  %126 = getelementptr inbounds nuw i8, ptr %125, i64 %124
  store ptr %126, ptr %6, align 8, !tbaa !10
  %127 = load i64, ptr %9, align 8, !tbaa !14
  %128 = load i64, ptr %10, align 8, !tbaa !14
  %129 = add i64 %127, %128
  %130 = icmp eq i64 %129, 16
  br i1 %130, label %139, label %131

131:                                              ; preds = %103
  %132 = load ptr, ptr %5, align 8, !tbaa !3
  %133 = getelementptr inbounds nuw %struct.mbedtls_ccm_context, ptr %132, i32 0, i32 5
  %134 = load i64, ptr %133, align 8, !tbaa !28
  %135 = load ptr, ptr %5, align 8, !tbaa !3
  %136 = getelementptr inbounds nuw %struct.mbedtls_ccm_context, ptr %135, i32 0, i32 3
  %137 = load i64, ptr %136, align 8, !tbaa !25
  %138 = icmp eq i64 %134, %137
  br i1 %138, label %139, label %158

139:                                              ; preds = %131, %103
  %140 = load ptr, ptr %5, align 8, !tbaa !3
  %141 = getelementptr inbounds nuw %struct.mbedtls_ccm_context, ptr %140, i32 0, i32 8
  %142 = load ptr, ptr %5, align 8, !tbaa !3
  %143 = getelementptr inbounds nuw %struct.mbedtls_ccm_context, ptr %142, i32 0, i32 0
  %144 = getelementptr inbounds [16 x i8], ptr %143, i64 0, i64 0
  %145 = load ptr, ptr %5, align 8, !tbaa !3
  %146 = getelementptr inbounds nuw %struct.mbedtls_ccm_context, ptr %145, i32 0, i32 0
  %147 = getelementptr inbounds [16 x i8], ptr %146, i64 0, i64 0
  %148 = call i32 @mbedtls_cipher_update(ptr noundef %141, ptr noundef %144, i64 noundef 16, ptr noundef %147, ptr noundef %11)
  store i32 %148, ptr %8, align 4, !tbaa !8
  %149 = load i32, ptr %8, align 4, !tbaa !8
  %150 = icmp ne i32 %149, 0
  br i1 %150, label %151, label %157

151:                                              ; preds = %139
  %152 = load ptr, ptr %5, align 8, !tbaa !3
  %153 = getelementptr inbounds nuw %struct.mbedtls_ccm_context, ptr %152, i32 0, i32 9
  %154 = load i32, ptr %153, align 8, !tbaa !22
  %155 = or i32 %154, 16
  store i32 %155, ptr %153, align 8, !tbaa !22
  %156 = load i32, ptr %8, align 4, !tbaa !8
  store i32 %156, ptr %4, align 4
  store i32 1, ptr %12, align 4
  br label %176

157:                                              ; preds = %139
  br label %158

158:                                              ; preds = %157, %131
  br label %87, !llvm.loop !29

159:                                              ; preds = %87
  %160 = load ptr, ptr %5, align 8, !tbaa !3
  %161 = getelementptr inbounds nuw %struct.mbedtls_ccm_context, ptr %160, i32 0, i32 5
  %162 = load i64, ptr %161, align 8, !tbaa !28
  %163 = load ptr, ptr %5, align 8, !tbaa !3
  %164 = getelementptr inbounds nuw %struct.mbedtls_ccm_context, ptr %163, i32 0, i32 3
  %165 = load i64, ptr %164, align 8, !tbaa !25
  %166 = icmp eq i64 %162, %165
  br i1 %166, label %167, label %174

167:                                              ; preds = %159
  %168 = load ptr, ptr %5, align 8, !tbaa !3
  %169 = getelementptr inbounds nuw %struct.mbedtls_ccm_context, ptr %168, i32 0, i32 9
  %170 = load i32, ptr %169, align 8, !tbaa !22
  %171 = or i32 %170, 8
  store i32 %171, ptr %169, align 8, !tbaa !22
  %172 = load ptr, ptr %5, align 8, !tbaa !3
  %173 = getelementptr inbounds nuw %struct.mbedtls_ccm_context, ptr %172, i32 0, i32 5
  store i64 0, ptr %173, align 8, !tbaa !28
  br label %174

174:                                              ; preds = %167, %159
  br label %175

175:                                              ; preds = %174, %19
  store i32 0, ptr %4, align 4
  store i32 1, ptr %12, align 4
  br label %176

176:                                              ; preds = %175, %151, %84, %41, %28, %18
  call void @llvm.lifetime.end.p0(i64 8, ptr %11) #8
  call void @llvm.lifetime.end.p0(i64 8, ptr %10) #8
  call void @llvm.lifetime.end.p0(i64 8, ptr %9) #8
  call void @llvm.lifetime.end.p0(i64 4, ptr %8) #8
  %177 = load i32, ptr %4, align 4
  ret i32 %177
}