; Function Attrs: nounwind uwtable
define hidden i32 @mbedtls_ccm_update_ad(ptr noundef %0, ptr noundef readonly captures(none) %1, i64 noundef %2) local_unnamed_addr #2 {
  %4 = alloca i64, align 8
  call void @llvm.lifetime.start.p0(i64 8, ptr nonnull %4) #10
  %5 = getelementptr inbounds nuw i8, ptr %0, i64 168
  %6 = load i32, ptr %5, align 8, !tbaa !15
  %7 = and i32 %6, 16
  %.not = icmp eq i32 %7, 0
  br i1 %.not, label %8, label %78

8:                                                ; preds = %3
  %.not53 = icmp eq i64 %2, 0
  br i1 %.not53, label %78, label %9

9:                                                ; preds = %8
  %10 = and i32 %6, 8
  %.not54 = icmp eq i32 %10, 0
  br i1 %.not54, label %11, label %78

11:                                               ; preds = %9
  %12 = and i32 %6, 4
  %.not55 = icmp eq i32 %12, 0
  br i1 %.not55, label %13, label %27

13:                                               ; preds = %11
  %14 = getelementptr inbounds nuw i8, ptr %0, i64 40
  %15 = load i64, ptr %14, align 8, !tbaa !18
  %16 = icmp ugt i64 %2, %15
  br i1 %16, label %78, label %17

17:                                               ; preds = %13
  %18 = load i8, ptr %0, align 8, !tbaa !14
  %19 = lshr i64 %15, 8
  %20 = trunc i64 %19 to i8
  %21 = xor i8 %18, %20
  store i8 %21, ptr %0, align 8, !tbaa !14
  %22 = trunc i64 %15 to i8
  %23 = getelementptr inbounds nuw i8, ptr %0, i64 1
  %24 = load i8, ptr %23, align 1, !tbaa !14
  %25 = xor i8 %24, %22
  store i8 %25, ptr %23, align 1, !tbaa !14
  %26 = or disjoint i32 %6, 4
  store i32 %26, ptr %5, align 8, !tbaa !15
  br label %34

27:                                               ; preds = %11
  %28 = getelementptr inbounds nuw i8, ptr %0, i64 56
  %29 = load i64, ptr %28, align 8, !tbaa !21
  %30 = add i64 %29, %2
  %31 = getelementptr inbounds nuw i8, ptr %0, i64 40
  %32 = load i64, ptr %31, align 8, !tbaa !18
  %33 = icmp ugt i64 %30, %32
  br i1 %33, label %78, label %34

34:                                               ; preds = %27, %17
  %35 = getelementptr inbounds nuw i8, ptr %0, i64 56
  %36 = getelementptr inbounds nuw i8, ptr %0, i64 40
  %37 = getelementptr inbounds nuw i8, ptr %0, i64 72
  br label %38

38:                                               ; preds = %34, %70
  %.04764 = phi i64 [ %2, %34 ], [ %58, %70 ]
  %.04863 = phi ptr [ %1, %34 ], [ %59, %70 ]
  %39 = load i64, ptr %35, align 8, !tbaa !21
  %40 = add i64 %39, 2
  %41 = and i64 %40, 15
  %42 = sub nuw nsw i64 16, %41
  %spec.select = call i64 @llvm.umin.i64(i64 %42, i64 %.04764)
  %43 = getelementptr inbounds nuw i8, ptr %0, i64 %41
  %.not.i59 = icmp samesign ult i64 %spec.select, 8
  br i1 %.not.i59, label %.preheader, label %.lr.ph

.preheader:                                       ; preds = %.lr.ph, %38
  %.0.i.lcssa = phi i64 [ 0, %38 ], [ %45, %.lr.ph ]
  %44 = icmp samesign ult i64 %.0.i.lcssa, %spec.select
  br i1 %44, label %.lr.ph62, label %mbedtls_xor.exit

.lr.ph:                                           ; preds = %38, %.lr.ph
  %45 = phi i64 [ %49, %.lr.ph ], [ 8, %38 ]
  %.0.i60 = phi i64 [ 8, %.lr.ph ], [ 0, %38 ]
  %46 = getelementptr inbounds nuw i8, ptr %43, i64 %.0.i60
  %.0.copyload.i58 = load i64, ptr %46, align 1
  %47 = getelementptr inbounds nuw i8, ptr %.04863, i64 %.0.i60
  %.0.copyload.i = load i64, ptr %47, align 1
  %48 = xor i64 %.0.copyload.i, %.0.copyload.i58
  store i64 %48, ptr %46, align 1
  %49 = add nuw nsw i64 %45, 8
  %.not.i = icmp samesign ugt i64 %49, %spec.select
  br i1 %.not.i, label %.preheader, label %.lr.ph, !llvm.loop !22

.lr.ph62:                                         ; preds = %.preheader, %.lr.ph62
  %.1.i61 = phi i64 [ %55, %.lr.ph62 ], [ %.0.i.lcssa, %.preheader ]
  %50 = getelementptr inbounds nuw i8, ptr %43, i64 %.1.i61
  %51 = load i8, ptr %50, align 1, !tbaa !14
  %52 = getelementptr inbounds nuw i8, ptr %.04863, i64 %.1.i61
  %53 = load i8, ptr %52, align 1, !tbaa !14
  %54 = xor i8 %53, %51
  store i8 %54, ptr %50, align 1, !tbaa !14
  %55 = add nuw nsw i64 %.1.i61, 1
  %exitcond.not = icmp eq i64 %55, %spec.select
  br i1 %exitcond.not, label %mbedtls_xor.exit, label %.lr.ph62, !llvm.loop !23

mbedtls_xor.exit:                                 ; preds = %.lr.ph62, %.preheader
  %56 = load i64, ptr %35, align 8, !tbaa !21
  %57 = add i64 %56, %spec.select
  store i64 %57, ptr %35, align 8, !tbaa !21
  %58 = sub i64 %.04764, %spec.select
  %59 = getelementptr inbounds nuw i8, ptr %.04863, i64 %spec.select
  %60 = add nuw nsw i64 %spec.select, %41
  %61 = icmp eq i64 %60, 16
  br i1 %61, label %65, label %62

62:                                               ; preds = %mbedtls_xor.exit
  %63 = load i64, ptr %36, align 8, !tbaa !18
  %64 = icmp eq i64 %57, %63
  br i1 %64, label %65, label %70

65:                                               ; preds = %62, %mbedtls_xor.exit
  %66 = call i32 @mbedtls_cipher_update(ptr noundef nonnull %37, ptr noundef nonnull %0, i64 noundef 16, ptr noundef nonnull %0, ptr noundef nonnull %4) #10
  %.not57 = icmp eq i32 %66, 0
  br i1 %.not57, label %70, label %67

67:                                               ; preds = %65
  %68 = load i32, ptr %5, align 8, !tbaa !15
  %69 = or i32 %68, 16
  store i32 %69, ptr %5, align 8, !tbaa !15
  br label %78

70:                                               ; preds = %65, %62
  %.not56 = icmp eq i64 %58, 0
  br i1 %.not56, label %71, label %38, !llvm.loop !24

71:                                               ; preds = %70
  %72 = load i64, ptr %35, align 8, !tbaa !21
  %73 = load i64, ptr %36, align 8, !tbaa !18
  %74 = icmp eq i64 %72, %73
  br i1 %74, label %75, label %78

75:                                               ; preds = %71
  %76 = load i32, ptr %5, align 8, !tbaa !15
  %77 = or i32 %76, 8
  store i32 %77, ptr %5, align 8, !tbaa !15
  store i64 0, ptr %35, align 8, !tbaa !21
  br label %78

78:                                               ; preds = %8, %75, %71, %27, %13, %9, %3, %67
  %.0 = phi i32 [ %66, %67 ], [ -13, %3 ], [ -13, %9 ], [ -13, %13 ], [ -13, %27 ], [ 0, %71 ], [ 0, %75 ], [ 0, %8 ]
  call void @llvm.lifetime.end.p0(i64 8, ptr nonnull %4) #10
  ret i32 %.0
}